target datalayout = "e-m:e-p270:32:32-p271:32:32-p272:64:64-i64:64-i128:128-f80:128-n8:16:32:64-S128"
target triple = "x86_64-pc-linux-gnu"

%struct.strbuf = type { i64, i64, ptr }
%struct.wt_status = type { ptr, i32, ptr, ptr, %struct.pathspec, i32, i32, i32, i32, i32, i32, i32, i32, i32, i32, i32, ptr, [9 x [75 x i8]], i32, i32, i32, i32, i32, i32, i32, i32, i32, i32, i32, i8, %struct.wt_status_state, %struct.object_id, i32, i32, ptr, ptr, ptr, %struct.string_list, %struct.string_list, %struct.string_list, i32 }
%struct.pathspec = type { i32, i8, i32, i32, ptr }
%struct.wt_status_state = type { i32, i32, i32, i32, i32, i32, i32, i32, i32, i32, ptr, ptr, ptr, ptr, %struct.object_id, %struct.object_id, %struct.object_id }
%struct.object_id = type { [32 x i8], i32 }
%struct.string_list = type { ptr, i64, i64, i8, ptr }
%struct.string_list_item = type { ptr, ptr }
%struct.column_options = type { i32, i32, ptr, ptr }

@.str.10 = private unnamed_addr constant [3 x i8] c"%s\00", align 1
@.str.29 = private unnamed_addr constant [1 x i8] zeroinitializer, align 1
@git_gettext_enabled = external global i32, align 4
@.str.74 = private unnamed_addr constant [4 x i8] c"%s\0A\00", align 1
@.str.196 = private unnamed_addr constant [2 x i8] c"\09\00", align 1
@__const.wt_longstatus_print_other.buf = private unnamed_addr constant %struct.strbuf { i64 0, i64 0, ptr @strbuf_slopbuf }, align 8
@wt_longstatus_print_other.output = internal global { ptr, i64, i64, i8, [7 x i8], ptr } { ptr null, i64 0, i64 0, i8 1, [7 x i8] zeroinitializer, ptr null }, align 8
@.str.236 = private unnamed_addr constant [8 x i8] c"%s%s\09%s\00", align 1
@.str.237 = private unnamed_addr constant [2 x i8] c"#\00", align 1
@.str.238 = private unnamed_addr constant [5 x i8] c"\1B[m\0A\00", align 1
@.str.239 = private unnamed_addr constant [4 x i8] c"%s:\00", align 1
@.str.240 = private unnamed_addr constant [64 x i8] c"  (use \22git %s <file>...\22 to include in what will be committed)\00", align 1

; Function Attrs: inlinehint nounwind uwtable
define internal ptr @_(ptr noundef %0) #8 {
  %2 = alloca ptr, align 8
  %3 = alloca ptr, align 8
  store ptr %0, ptr %3, align 8, !tbaa !9
  %4 = load ptr, ptr %3, align 8, !tbaa !9
  %5 = load i8, ptr %4, align 1, !tbaa !30
  %6 = icmp ne i8 %5, 0
  br i1 %6, label %8, label %7

7:                                                ; preds = %1
  store ptr @.str.29, ptr %2, align 8
  br label %16

8:                                                ; preds = %1
  %9 = load i32, ptr @git_gettext_enabled, align 4, !tbaa !11
  %10 = icmp ne i32 %9, 0
  br i1 %10, label %13, label %11

11:                                               ; preds = %8
  %12 = load ptr, ptr %3, align 8, !tbaa !9
  store ptr %12, ptr %2, align 8
  br label %16

13:                                               ; preds = %8
  %14 = load ptr, ptr %3, align 8, !tbaa !9
  %15 = call ptr @dcgettext(ptr noundef null, ptr noundef %14, i32 noundef 5) #12
  store ptr %15, ptr %2, align 8
  br label %16

16:                                               ; preds = %13, %11, %7
  %17 = load ptr, ptr %2, align 8
  ret ptr %17
}

; Function Attrs: nounwind uwtable
define internal ptr @color(i32 noundef %0, ptr noundef %1) #0 {
  %3 = alloca i32, align 4
  %4 = alloca ptr, align 8
  %5 = alloca ptr, align 8
  store i32 %0, ptr %3, align 4, !tbaa !11
  store ptr %1, ptr %4, align 8, !tbaa !4
  call void @llvm.lifetime.start.p0(i64 8, ptr %5) #12
  store ptr @.str.29, ptr %5, align 8, !tbaa !9
  %6 = load ptr, ptr %4, align 8, !tbaa !4
  %7 = getelementptr inbounds nuw %struct.wt_status, ptr %6, i32 0, i32 9
  %8 = load i32, ptr %7, align 8, !tbaa !36
  %9 = call i32 @want_color_fd(i32 noundef 1, i32 noundef %8)
  %10 = icmp ne i32 %9, 0
  br i1 %10, label %11, label %18

11:                                               ; preds = %2
  %12 = load ptr, ptr %4, align 8, !tbaa !4
  %13 = getelementptr inbounds nuw %struct.wt_status, ptr %12, i32 0, i32 17
  %14 = load i32, ptr %3, align 4, !tbaa !11
  %15 = sext i32 %14 to i64
  %16 = getelementptr inbounds [9 x [75 x i8]], ptr %13, i64 0, i64 %15
  %17 = getelementptr inbounds [75 x i8], ptr %16, i64 0, i64 0
  store ptr %17, ptr %5, align 8, !tbaa !9
  br label %18

18:                                               ; preds = %11, %2
  %19 = load i32, ptr %3, align 4, !tbaa !11
  %20 = icmp eq i32 %19, 8
  br i1 %20, label %21, label %30

21:                                               ; preds = %18
  %22 = load ptr, ptr %5, align 8, !tbaa !9
  %23 = call i32 @color_is_nil(ptr noundef %22)
  %24 = icmp ne i32 %23, 0
  br i1 %24, label %25, label %30

25:                                               ; preds = %21
  %26 = load ptr, ptr %4, align 8, !tbaa !4
  %27 = getelementptr inbounds nuw %struct.wt_status, ptr %26, i32 0, i32 17
  %28 = getelementptr inbounds [9 x [75 x i8]], ptr %27, i64 0, i64 0
  %29 = getelementptr inbounds [75 x i8], ptr %28, i64 0, i64 0
  store ptr %29, ptr %5, align 8, !tbaa !9
  br label %30

30:                                               ; preds = %25, %21, %18
  %31 = load ptr, ptr %5, align 8, !tbaa !9
  call void @llvm.lifetime.end.p0(i64 8, ptr %5) #12
  ret ptr %31
}

; Function Attrs: inlinehint nounwind uwtable
define internal i32 @column_active(i32 noundef %0) #8 {
  %2 = alloca i32, align 4
  store i32 %0, ptr %2, align 4, !tbaa !11
  %3 = load i32, ptr %2, align 4, !tbaa !11
  %4 = and i32 %3, 48
  %5 = icmp eq i32 %4, 16
  %6 = zext i1 %5 to i32
  ret i32 %6
}

; Function Attrs: nounwind uwtable
define internal void @wt_longstatus_print_other_header(ptr noundef %0, ptr noundef %1, ptr noundef %2) #0 {
  %4 = alloca ptr, align 8
  %5 = alloca ptr, align 8
  %6 = alloca ptr, align 8
  %7 = alloca ptr, align 8
  %8 = alloca i32, align 4
  store ptr %0, ptr %4, align 8, !tbaa !4
  store ptr %1, ptr %5, align 8, !tbaa !9
  store ptr %2, ptr %6, align 8, !tbaa !9
  call void @llvm.lifetime.start.p0(i64 8, ptr %7) #12
  %9 = load ptr, ptr %4, align 8, !tbaa !4
  %10 = call ptr @color(i32 noundef 0, ptr noundef %9)
  store ptr %10, ptr %7, align 8, !tbaa !9
  %11 = load ptr, ptr %4, align 8, !tbaa !4
  %12 = load ptr, ptr %7, align 8, !tbaa !9
  %13 = load ptr, ptr %5, align 8, !tbaa !9
  call void (ptr, ptr, ptr, ...) @status_printf_ln(ptr noundef %11, ptr noundef %12, ptr noundef @.str.239, ptr noundef %13)
  %14 = load ptr, ptr %4, align 8, !tbaa !4
  %15 = getelementptr inbounds nuw %struct.wt_status, ptr %14, i32 0, i32 23
  %16 = load i32, ptr %15, align 8, !tbaa !232
  %17 = icmp ne i32 %16, 0
  br i1 %17, label %19, label %18

18:                                               ; preds = %3
  store i32 1, ptr %8, align 4
  br label %24

19:                                               ; preds = %3
  %20 = load ptr, ptr %4, align 8, !tbaa !4
  %21 = load ptr, ptr %7, align 8, !tbaa !9
  %22 = call ptr @_(ptr noundef @.str.240)
  %23 = load ptr, ptr %6, align 8, !tbaa !9
  call void (ptr, ptr, ptr, ...) @status_printf_ln(ptr noundef %20, ptr noundef %21, ptr noundef %22, ptr noundef %23)
  store i32 0, ptr %8, align 4
  br label %24

24:                                               ; preds = %19, %18
  call void @llvm.lifetime.end.p0(i64 8, ptr %7) #12
  %25 = load i32, ptr %8, align 4
  switch i32 %25, label %27 [
    i32 0, label %26
    i32 1, label %26
  ]

26:                                               ; preds = %24, %24
  ret void

27:                                               ; preds = %24
  unreachable
}

; Function Attrs: nounwind uwtable
define internal void @wt_longstatus_print_other(ptr noundef %0, ptr noundef %1, ptr noundef %2, ptr noundef %3) #0 {
  %5 = alloca ptr, align 8
  %6 = alloca ptr, align 8
  %7 = alloca ptr, align 8
  %8 = alloca ptr, align 8
  %9 = alloca i32, align 4
  %10 = alloca %struct.strbuf, align 8
  %11 = alloca %struct.column_options, align 8
  %12 = alloca i32, align 4
  %13 = alloca ptr, align 8
  %14 = alloca ptr, align 8
  store ptr %0, ptr %5, align 8, !tbaa !4
  store ptr %1, ptr %6, align 8, !tbaa !294
  store ptr %2, ptr %7, align 8, !tbaa !9
  store ptr %3, ptr %8, align 8, !tbaa !9
  call void @llvm.lifetime.start.p0(i64 4, ptr %9) #12
  call void @llvm.lifetime.start.p0(i64 24, ptr %10) #12
  call void @llvm.memcpy.p0.p0.i64(ptr align 8 %10, ptr align 8 @__const.wt_longstatus_print_other.buf, i64 24, i1 false)
  call void @llvm.lifetime.start.p0(i64 24, ptr %11) #12
  %15 = load ptr, ptr %6, align 8, !tbaa !294
  %16 = getelementptr inbounds nuw %struct.string_list, ptr %15, i32 0, i32 1
  %17 = load i64, ptr %16, align 8, !tbaa !295
  %18 = icmp ne i64 %17, 0
  br i1 %18, label %20, label %19

19:                                               ; preds = %4
  store i32 1, ptr %12, align 4
  br label %101

20:                                               ; preds = %4
  %21 = load ptr, ptr %5, align 8, !tbaa !4
  %22 = load ptr, ptr %7, align 8, !tbaa !9
  %23 = load ptr, ptr %8, align 8, !tbaa !9
  call void @wt_longstatus_print_other_header(ptr noundef %21, ptr noundef %22, ptr noundef %23)
  store i32 0, ptr %9, align 4, !tbaa !11
  br label %24

24:                                               ; preds = %64, %20
  %25 = load i32, ptr %9, align 4, !tbaa !11
  %26 = sext i32 %25 to i64
  %27 = load ptr, ptr %6, align 8, !tbaa !294
  %28 = getelementptr inbounds nuw %struct.string_list, ptr %27, i32 0, i32 1
  %29 = load i64, ptr %28, align 8, !tbaa !295
  %30 = icmp ult i64 %26, %29
  br i1 %30, label %31, label %67

31:                                               ; preds = %24
  call void @llvm.lifetime.start.p0(i64 8, ptr %13) #12
  call void @llvm.lifetime.start.p0(i64 8, ptr %14) #12
  %32 = load ptr, ptr %6, align 8, !tbaa !294
  %33 = getelementptr inbounds nuw %struct.string_list, ptr %32, i32 0, i32 0
  %34 = load ptr, ptr %33, align 8, !tbaa !296
  %35 = load i32, ptr %9, align 4, !tbaa !11
  %36 = sext i32 %35 to i64
  %37 = getelementptr inbounds %struct.string_list_item, ptr %34, i64 %36
  store ptr %37, ptr %13, align 8, !tbaa !139
  %38 = load ptr, ptr %13, align 8, !tbaa !139
  %39 = getelementptr inbounds nuw %struct.string_list_item, ptr %38, i32 0, i32 0
  %40 = load ptr, ptr %39, align 8, !tbaa !285
  %41 = load ptr, ptr %5, align 8, !tbaa !4
  %42 = getelementptr inbounds nuw %struct.wt_status, ptr %41, i32 0, i32 36
  %43 = load ptr, ptr %42, align 8, !tbaa !219
  %44 = call ptr @quote_path(ptr noundef %40, ptr noundef %43, ptr noundef %10, i32 noundef 0)
  store ptr %44, ptr %14, align 8, !tbaa !9
  %45 = load ptr, ptr %5, align 8, !tbaa !4
  %46 = getelementptr inbounds nuw %struct.wt_status, ptr %45, i32 0, i32 18
  %47 = load i32, ptr %46, align 4, !tbaa !297
  %48 = call i32 @column_active(i32 noundef %47)
  %49 = icmp ne i32 %48, 0
  br i1 %49, label %50, label %53

50:                                               ; preds = %31
  %51 = load ptr, ptr %14, align 8, !tbaa !9
  %52 = call ptr @string_list_append(ptr noundef @wt_longstatus_print_other.output, ptr noundef %51)
  store i32 4, ptr %12, align 4
  br label %61

53:                                               ; preds = %31
  %54 = load ptr, ptr %5, align 8, !tbaa !4
  %55 = load ptr, ptr %5, align 8, !tbaa !4
  %56 = call ptr @color(i32 noundef 0, ptr noundef %55)
  call void (ptr, ptr, ptr, ...) @status_printf(ptr noundef %54, ptr noundef %56, ptr noundef @.str.196)
  %57 = load ptr, ptr %5, align 8, !tbaa !4
  %58 = load ptr, ptr %5, align 8, !tbaa !4
  %59 = call ptr @color(i32 noundef 3, ptr noundef %58)
  %60 = load ptr, ptr %14, align 8, !tbaa !9
  call void (ptr, ptr, ptr, ...) @status_printf_more(ptr noundef %57, ptr noundef %59, ptr noundef @.str.74, ptr noundef %60)
  store i32 0, ptr %12, align 4
  br label %61

61:                                               ; preds = %53, %50
  call void @llvm.lifetime.end.p0(i64 8, ptr %14) #12
  call void @llvm.lifetime.end.p0(i64 8, ptr %13) #12
  %62 = load i32, ptr %12, align 4
  switch i32 %62, label %104 [
    i32 0, label %63
    i32 4, label %64
  ]

63:                                               ; preds = %61
  br label %64

64:                                               ; preds = %63, %61
  %65 = load i32, ptr %9, align 4, !tbaa !11
  %66 = add nsw i32 %65, 1
  store i32 %66, ptr %9, align 4, !tbaa !11
  br label %24, !llvm.loop !298

67:                                               ; preds = %24
  call void @strbuf_release(ptr noundef %10)
  %68 = load ptr, ptr %5, align 8, !tbaa !4
  %69 = getelementptr inbounds nuw %struct.wt_status, ptr %68, i32 0, i32 18
  %70 = load i32, ptr %69, align 4, !tbaa !297
  %71 = call i32 @column_active(i32 noundef %70)
  %72 = icmp ne i32 %71, 0
  br i1 %72, label %74, label %73

73:                                               ; preds = %67
  br label %99

74:                                               ; preds = %67
  %75 = load ptr, ptr %5, align 8, !tbaa !4
  %76 = call ptr @color(i32 noundef 0, ptr noundef %75)
  %77 = load ptr, ptr %5, align 8, !tbaa !4
  %78 = getelementptr inbounds nuw %struct.wt_status, ptr %77, i32 0, i32 11
  %79 = load i32, ptr %78, align 8, !tbaa !18
  %80 = icmp ne i32 %79, 0
  %81 = select i1 %80, ptr @.str.237, ptr @.str.29
  %82 = load ptr, ptr %5, align 8, !tbaa !4
  %83 = call ptr @color(i32 noundef 3, ptr noundef %82)
  call void (ptr, ptr, ...) @strbuf_addf(ptr noundef %10, ptr noundef @.str.236, ptr noundef %76, ptr noundef %81, ptr noundef %83)
  call void @llvm.memset.p0.i64(ptr align 8 %11, i8 0, i64 24, i1 false)
  %84 = getelementptr inbounds nuw %struct.column_options, ptr %11, i32 0, i32 1
  store i32 1, ptr %84, align 4, !tbaa !299
  %85 = getelementptr inbounds nuw %struct.strbuf, ptr %10, i32 0, i32 2
  %86 = load ptr, ptr %85, align 8, !tbaa !29
  %87 = getelementptr inbounds nuw %struct.column_options, ptr %11, i32 0, i32 2
  store ptr %86, ptr %87, align 8, !tbaa !301
  %88 = load ptr, ptr %5, align 8, !tbaa !4
  %89 = getelementptr inbounds nuw %struct.wt_status, ptr %88, i32 0, i32 9
  %90 = load i32, ptr %89, align 8, !tbaa !36
  %91 = call i32 @want_color_fd(i32 noundef 1, i32 noundef %90)
  %92 = icmp ne i32 %91, 0
  br i1 %92, label %93, label %95

93:                                               ; preds = %74
  %94 = getelementptr inbounds nuw %struct.column_options, ptr %11, i32 0, i32 3
  store ptr @.str.238, ptr %94, align 8, !tbaa !302
  br label %95

95:                                               ; preds = %93, %74
  %96 = load ptr, ptr %5, align 8, !tbaa !4
  %97 = getelementptr inbounds nuw %struct.wt_status, ptr %96, i32 0, i32 18
  %98 = load i32, ptr %97, align 4, !tbaa !297
  call void @print_columns(ptr noundef @wt_longstatus_print_other.output, i32 noundef %98, ptr noundef %11)
  call void @string_list_clear(ptr noundef @wt_longstatus_print_other.output, i32 noundef 0)
  call void @strbuf_release(ptr noundef %10)
  br label %99

99:                                               ; preds = %95, %73
  %100 = load ptr, ptr %5, align 8, !tbaa !4
  call void (ptr, ptr, ptr, ...) @status_printf_ln(ptr noundef %100, ptr noundef @.str.29, ptr noundef @.str.10, ptr noundef @.str.29)
  store i32 0, ptr %12, align 4
  br label %101

101:                                              ; preds = %99, %19
  call void @llvm.lifetime.end.p0(i64 24, ptr %11) #12
  call void @llvm.lifetime.end.p0(i64 24, ptr %10) #12
  call void @llvm.lifetime.end.p0(i64 4, ptr %9) #12
  %102 = load i32, ptr %12, align 4
  switch i32 %102, label %104 [
    i32 0, label %103
    i32 1, label %103
  ]

103:                                              ; preds = %101, %101
  ret void

104:                                              ; preds = %101, %61
  unreachable
}