; Function Attrs: nounwind uwtable
define internal fastcc void @wt_longstatus_print_other(ptr noundef %0, ptr noundef readonly captures(none) %1, ptr noundef %2, ptr noundef %3) unnamed_addr #0 {
  %5 = alloca %struct.strbuf, align 8
  %6 = alloca %struct.column_options, align 8
  call void @llvm.lifetime.start.p0(i64 24, ptr nonnull %5) #20
  call void @llvm.memcpy.p0.p0.i64(ptr noundef nonnull align 8 dereferenceable(24) %5, ptr noundef nonnull align 8 dereferenceable(24) @__const.wt_longstatus_print_other.buf, i64 24, i1 false)
  call void @llvm.lifetime.start.p0(i64 24, ptr nonnull %6) #20
  %7 = getelementptr inbounds nuw i8, ptr %1, i64 8
  %8 = load i64, ptr %7, align 8, !tbaa !268
  %.not = icmp eq i64 %8, 0
  br i1 %.not, label %65, label %9

9:                                                ; preds = %4
  %10 = getelementptr inbounds nuw i8, ptr %0, i64 72
  %11 = load i32, ptr %10, align 8, !tbaa !31
  %12 = tail call i32 @want_color_fd(i32 noundef 1, i32 noundef %11) #20
  %.not.i.i = icmp eq i32 %12, 0
  %13 = getelementptr inbounds nuw i8, ptr %0, i64 112
  %.0.i.i = select i1 %.not.i.i, ptr @.str.29, ptr %13
  tail call void (ptr, ptr, ptr, ...) @status_printf_ln(ptr noundef %0, ptr noundef nonnull %.0.i.i, ptr noundef nonnull @.str.239, ptr noundef %2)
  %14 = getelementptr inbounds nuw i8, ptr %0, i64 808
  %15 = load i32, ptr %14, align 8, !tbaa !219
  %.not.i = icmp eq i32 %15, 0
  br i1 %.not.i, label %wt_longstatus_print_other_header.exit, label %16

16:                                               ; preds = %9
  %17 = load i32, ptr @git_gettext_enabled, align 4, !tbaa !128
  %.not4.i.i = icmp eq i32 %17, 0
  br i1 %.not4.i.i, label %_.exit.i, label %18

18:                                               ; preds = %16
  %19 = tail call ptr @dcgettext(ptr noundef null, ptr noundef nonnull @.str.240, i32 noundef 5) #20
  br label %_.exit.i

_.exit.i:                                         ; preds = %18, %16
  %.0.i8.i = phi ptr [ %19, %18 ], [ @.str.240, %16 ]
  tail call void (ptr, ptr, ptr, ...) @status_printf_ln(ptr noundef nonnull %0, ptr noundef nonnull %.0.i.i, ptr noundef %.0.i8.i, ptr noundef %3)
  br label %wt_longstatus_print_other_header.exit

wt_longstatus_print_other_header.exit:            ; preds = %9, %_.exit.i
  %20 = load i64, ptr %7, align 8, !tbaa !268
  %.not39 = icmp eq i64 %20, 0
  br i1 %.not39, label %._crit_edge, label %.lr.ph

.lr.ph:                                           ; preds = %wt_longstatus_print_other_header.exit
  %21 = getelementptr inbounds nuw i8, ptr %0, i64 1088
  %22 = getelementptr inbounds nuw i8, ptr %0, i64 788
  %23 = getelementptr inbounds nuw i8, ptr %0, i64 337
  br label %24

24:                                               ; preds = %.lr.ph, %39
  %indvars.iv = phi i64 [ 0, %.lr.ph ], [ %indvars.iv.next, %39 ]
  %25 = load ptr, ptr %1, align 8, !tbaa !269
  %26 = getelementptr inbounds nuw %struct.string_list_item, ptr %25, i64 %indvars.iv
  %27 = load ptr, ptr %26, align 8, !tbaa !203
  %28 = load ptr, ptr %21, align 8, !tbaa !193
  %29 = call ptr @quote_path(ptr noundef %27, ptr noundef %28, ptr noundef nonnull %5, i32 noundef 0) #20
  %30 = load i32, ptr %22, align 4, !tbaa !270
  %31 = and i32 %30, 48
  %.not37 = icmp eq i32 %31, 16
  br i1 %.not37, label %32, label %34

32:                                               ; preds = %24
  %33 = call ptr @string_list_append(ptr noundef nonnull @wt_longstatus_print_other.output, ptr noundef %29) #20
  br label %39

34:                                               ; preds = %24
  %35 = load i32, ptr %10, align 8, !tbaa !31
  %36 = call i32 @want_color_fd(i32 noundef 1, i32 noundef %35) #20
  %.not.i29 = icmp eq i32 %36, 0
  %.0.i = select i1 %.not.i29, ptr @.str.29, ptr %13
  call void (ptr, ptr, ptr, ...) @status_printf(ptr noundef nonnull %0, ptr noundef nonnull %.0.i, ptr noundef nonnull @.str.196)
  %37 = load i32, ptr %10, align 8, !tbaa !31
  %38 = call i32 @want_color_fd(i32 noundef 1, i32 noundef %37) #20
  %.not.i30 = icmp eq i32 %38, 0
  %.0.i31 = select i1 %.not.i30, ptr @.str.29, ptr %23
  call void (ptr, ptr, ptr, ...) @status_printf_more(ptr noundef nonnull %0, ptr noundef nonnull %.0.i31, ptr noundef nonnull @.str.74, ptr noundef %29)
  br label %39

39:                                               ; preds = %34, %32
  %indvars.iv.next = add nuw nsw i64 %indvars.iv, 1
  %40 = load i64, ptr %7, align 8, !tbaa !268
  %41 = icmp ugt i64 %40, %indvars.iv.next
  br i1 %41, label %24, label %._crit_edge, !llvm.loop !271

._crit_edge:                                      ; preds = %39, %wt_longstatus_print_other_header.exit
  call void @strbuf_release(ptr noundef nonnull %5) #20
  %42 = getelementptr inbounds nuw i8, ptr %0, i64 788
  %43 = load i32, ptr %42, align 4, !tbaa !270
  %44 = and i32 %43, 48
  %.not36 = icmp eq i32 %44, 16
  br i1 %.not36, label %45, label %64

45:                                               ; preds = %._crit_edge
  %46 = load i32, ptr %10, align 8, !tbaa !31
  %47 = call i32 @want_color_fd(i32 noundef 1, i32 noundef %46) #20
  %.not.i32 = icmp eq i32 %47, 0
  %.0.i33 = select i1 %.not.i32, ptr @.str.29, ptr %13
  %48 = getelementptr inbounds nuw i8, ptr %0, i64 80
  %49 = load i32, ptr %48, align 8, !tbaa !11
  %.not26 = icmp eq i32 %49, 0
  %50 = select i1 %.not26, ptr @.str.29, ptr @.str.237
  %51 = load i32, ptr %10, align 8, !tbaa !31
  %52 = call i32 @want_color_fd(i32 noundef 1, i32 noundef %51) #20
  %.not.i34 = icmp eq i32 %52, 0
  %53 = getelementptr inbounds nuw i8, ptr %0, i64 337
  %.0.i35 = select i1 %.not.i34, ptr @.str.29, ptr %53
  call void (ptr, ptr, ...) @strbuf_addf(ptr noundef nonnull %5, ptr noundef nonnull @.str.236, ptr noundef nonnull %.0.i33, ptr noundef nonnull %50, ptr noundef nonnull %.0.i35) #20
  call void @llvm.memset.p0.i64(ptr noundef nonnull align 8 dereferenceable(24) %6, i8 0, i64 24, i1 false)
  %54 = getelementptr inbounds nuw i8, ptr %6, i64 4
  store i32 1, ptr %54, align 4, !tbaa !272
  %55 = getelementptr inbounds nuw i8, ptr %5, i64 16
  %56 = load ptr, ptr %55, align 8, !tbaa !25
  %57 = getelementptr inbounds nuw i8, ptr %6, i64 8
  store ptr %56, ptr %57, align 8, !tbaa !274
  %58 = load i32, ptr %10, align 8, !tbaa !31
  %59 = call i32 @want_color_fd(i32 noundef 1, i32 noundef %58) #20
  %.not27 = icmp eq i32 %59, 0
  br i1 %.not27, label %62, label %60

60:                                               ; preds = %45
  %61 = getelementptr inbounds nuw i8, ptr %6, i64 16
  store ptr @.str.238, ptr %61, align 8, !tbaa !275
  br label %62

62:                                               ; preds = %60, %45
  %63 = load i32, ptr %42, align 4, !tbaa !270
  call void @print_columns(ptr noundef nonnull @wt_longstatus_print_other.output, i32 noundef %63, ptr noundef nonnull %6) #20
  call void @string_list_clear(ptr noundef nonnull @wt_longstatus_print_other.output, i32 noundef 0) #20
  call void @strbuf_release(ptr noundef nonnull %5) #20
  br label %64

64:                                               ; preds = %._crit_edge, %62
  call void (ptr, ptr, ptr, ...) @status_printf_ln(ptr noundef nonnull %0, ptr noundef nonnull @.str.29, ptr noundef nonnull @.str.10, ptr noundef nonnull @.str.29)
  br label %65

65:                                               ; preds = %4, %64
  call void @llvm.lifetime.end.p0(i64 24, ptr nonnull %6) #20
  call void @llvm.lifetime.end.p0(i64 24, ptr nonnull %5) #20
  ret void
}